target datalayout = "e-m:e-p270:32:32-p271:32:32-p272:64:64-i64:64-i128:128-f80:128-n8:16:32:64-S128"
target triple = "x86_64-pc-linux-gnu"

%"class.zxing::Counted.base" = type <{ ptr, i32 }>
%"struct.std::_Vector_base.22" = type { %"struct.std::_Vector_base<zxing::Ref<zxing::qrcode::AlignmentPattern>, std::allocator<zxing::Ref<zxing::qrcode::AlignmentPattern>>>::_Vector_impl" }
%"struct.std::_Vector_base<zxing::Ref<zxing::qrcode::AlignmentPattern>, std::allocator<zxing::Ref<zxing::qrcode::AlignmentPattern>>>::_Vector_impl" = type { %"struct.std::_Vector_base<zxing::Ref<zxing::qrcode::AlignmentPattern>, std::allocator<zxing::Ref<zxing::qrcode::AlignmentPattern>>>::_Vector_impl_data" }
%"struct.std::_Vector_base<zxing::Ref<zxing::qrcode::AlignmentPattern>, std::allocator<zxing::Ref<zxing::qrcode::AlignmentPattern>>>::_Vector_impl_data" = type { ptr, ptr, ptr }
%"class.zxing::Ref.26" = type { ptr }
%"class.zxing::qrcode::AlignmentPattern" = type { %"class.zxing::ResultPoint.base", float }
%"class.zxing::ResultPoint.base" = type { %"class.zxing::Counted.base", float, float }

; Function Attrs: mustprogress nounwind uwtable
define linkonce_odr hidden noundef nonnull align 8 dereferenceable(8) ptr @_ZNSt6vectorIN5zxing3RefINS0_6qrcode16AlignmentPatternEEESaIS4_EEixEm(ptr noundef nonnull align 8 dereferenceable(24) %0, i64 noundef %1) #1 comdat align 2 {
  %3 = alloca ptr, align 8
  %4 = alloca i64, align 8
  store ptr %0, ptr %3, align 8, !tbaa !76
  store i64 %1, ptr %4, align 8, !tbaa !40
  %5 = load ptr, ptr %3, align 8
  %6 = getelementptr inbounds nuw %"struct.std::_Vector_base.22", ptr %5, i32 0, i32 0
  %7 = getelementptr inbounds nuw %"struct.std::_Vector_base<zxing::Ref<zxing::qrcode::AlignmentPattern>, std::allocator<zxing::Ref<zxing::qrcode::AlignmentPattern>>>::_Vector_impl_data", ptr %6, i32 0, i32 0
  %8 = load ptr, ptr %7, align 8, !tbaa !79
  %9 = load i64, ptr %4, align 8, !tbaa !40
  %10 = getelementptr inbounds nuw %"class.zxing::Ref.26", ptr %8, i64 %9
  ret ptr %10
}

; Function Attrs: mustprogress nounwind uwtable
define linkonce_odr hidden noundef i64 @_ZNKSt6vectorIN5zxing3RefINS0_6qrcode16AlignmentPatternEEESaIS4_EE4sizeEv(ptr noundef nonnull align 8 dereferenceable(24) %0) #1 comdat align 2 {
  %2 = alloca ptr, align 8
  store ptr %0, ptr %2, align 8, !tbaa !76
  %3 = load ptr, ptr %2, align 8
  %4 = getelementptr inbounds nuw %"struct.std::_Vector_base.22", ptr %3, i32 0, i32 0
  %5 = getelementptr inbounds nuw %"struct.std::_Vector_base<zxing::Ref<zxing::qrcode::AlignmentPattern>, std::allocator<zxing::Ref<zxing::qrcode::AlignmentPattern>>>::_Vector_impl_data", ptr %4, i32 0, i32 1
  %6 = load ptr, ptr %5, align 8, !tbaa !78
  %7 = getelementptr inbounds nuw %"struct.std::_Vector_base.22", ptr %3, i32 0, i32 0
  %8 = getelementptr inbounds nuw %"struct.std::_Vector_base<zxing::Ref<zxing::qrcode::AlignmentPattern>, std::allocator<zxing::Ref<zxing::qrcode::AlignmentPattern>>>::_Vector_impl_data", ptr %7, i32 0, i32 0
  %9 = load ptr, ptr %8, align 8, !tbaa !79
  %10 = ptrtoint ptr %6 to i64
  %11 = ptrtoint ptr %9 to i64
  %12 = sub i64 %10, %11
  %13 = sdiv exact i64 %12, 8
  ret i64 %13
}

; Function Attrs: mustprogress nounwind uwtable
define linkonce_odr hidden noundef float @_ZN5zxing6qrcode16AlignmentPattern13getModuleSizeEv(ptr noundef nonnull align 8 dereferenceable(24) %0) #1 comdat align 2 {
  %2 = alloca ptr, align 8
  store ptr %0, ptr %2, align 8, !tbaa !137
  %3 = load ptr, ptr %2, align 8
  %4 = getelementptr inbounds nuw %"class.zxing::qrcode::AlignmentPattern", ptr %3, i32 0, i32 1
  %5 = load float, ptr %4, align 4, !tbaa !138
  ret float %5
}

; Function Attrs: mustprogress nounwind uwtable
define linkonce_odr hidden noundef ptr @_ZNK5zxing3RefINS_6qrcode16AlignmentPatternEEptEv(ptr noundef nonnull align 8 dereferenceable(8) %0) #1 comdat align 2 {
  %2 = alloca ptr, align 8
  store ptr %0, ptr %2, align 8, !tbaa !100
  %3 = load ptr, ptr %2, align 8
  %4 = getelementptr inbounds nuw %"class.zxing::Ref.26", ptr %3, i32 0, i32 0
  %5 = load ptr, ptr %4, align 8, !tbaa !101
  ret ptr %5
}

; Function Attrs: mustprogress uwtable
define hidden noundef zeroext i1 @_ZN5zxing6qrcode8Detector13hasSameResultESt6vectorINS_3RefINS0_16AlignmentPatternEEESaIS5_EES5_(ptr noundef nonnull align 8 dereferenceable(60) %0, ptr noundef %1, ptr noundef %2) #0 align 2 {
  %4 = alloca i1, align 1
  %5 = alloca ptr, align 8
  %6 = alloca ptr, align 8
  %7 = alloca ptr, align 8
  %8 = alloca float, align 4
  %9 = alloca i64, align 8
  %10 = alloca i32, align 4
  store ptr %0, ptr %5, align 8, !tbaa !3
  store ptr %1, ptr %6, align 8, !tbaa !76
  store ptr %2, ptr %7, align 8, !tbaa !100
  call void @llvm.lifetime.start.p0(i64 4, ptr %8) #16
  %11 = call noundef ptr @_ZNK5zxing3RefINS_6qrcode16AlignmentPatternEEptEv(ptr noundef nonnull align 8 dereferenceable(8) %2)
  %12 = call noundef float @_ZN5zxing6qrcode16AlignmentPattern13getModuleSizeEv(ptr noundef nonnull align 8 dereferenceable(24) %11)
  %13 = fpext float %12 to double
  %14 = fdiv double %13, 5.000000e+00
  %15 = fptrunc double %14 to float
  store float %15, ptr %8, align 4, !tbaa !80
  %16 = load float, ptr %8, align 4, !tbaa !80
  %17 = fpext float %16 to double
  %18 = fcmp olt double %17, 1.000000e+00
  br i1 %18, label %19, label %20

19:                                               ; preds = %3
  store float 1.000000e+00, ptr %8, align 4, !tbaa !80
  br label %20

20:                                               ; preds = %19, %3
  call void @llvm.lifetime.start.p0(i64 8, ptr %9) #16
  store i64 0, ptr %9, align 8, !tbaa !40
  br label %21

21:                                               ; preds = %44, %20
  %22 = load i64, ptr %9, align 8, !tbaa !40
  %23 = call noundef i64 @_ZNKSt6vectorIN5zxing3RefINS0_6qrcode16AlignmentPatternEEESaIS4_EE4sizeEv(ptr noundef nonnull align 8 dereferenceable(24) %1) #16
  %24 = icmp ult i64 %22, %23
  br i1 %24, label %26, label %25

25:                                               ; preds = %21
  store i32 2, ptr %10, align 4
  br label %47

26:                                               ; preds = %21
  %27 = load i64, ptr %9, align 8, !tbaa !40
  %28 = call noundef nonnull align 8 dereferenceable(8) ptr @_ZNSt6vectorIN5zxing3RefINS0_6qrcode16AlignmentPatternEEESaIS4_EEixEm(ptr noundef nonnull align 8 dereferenceable(24) %1, i64 noundef %27) #16
  %29 = call noundef ptr @_ZNK5zxing3RefINS_6qrcode16AlignmentPatternEEptEv(ptr noundef nonnull align 8 dereferenceable(8) %28)
  %30 = load float, ptr %8, align 4, !tbaa !80
  %31 = call noundef ptr @_ZNK5zxing3RefINS_6qrcode16AlignmentPatternEEptEv(ptr noundef nonnull align 8 dereferenceable(8) %2)
  %32 = load ptr, ptr %31, align 8, !tbaa !12
  %33 = getelementptr inbounds ptr, ptr %32, i64 3
  %34 = load ptr, ptr %33, align 8
  %35 = call noundef float %34(ptr noundef nonnull align 8 dereferenceable(20) %31)
  %36 = call noundef ptr @_ZNK5zxing3RefINS_6qrcode16AlignmentPatternEEptEv(ptr noundef nonnull align 8 dereferenceable(8) %2)
  %37 = load ptr, ptr %36, align 8, !tbaa !12
  %38 = getelementptr inbounds ptr, ptr %37, i64 2
  %39 = load ptr, ptr %38, align 8
  %40 = call noundef float %39(ptr noundef nonnull align 8 dereferenceable(20) %36)
  %41 = call noundef zeroext i1 @_ZNK5zxing6qrcode16AlignmentPattern11aboutEqualsEfff(ptr noundef nonnull align 8 dereferenceable(24) %29, float noundef %30, float noundef %35, float noundef %40)
  br i1 %41, label %42, label %43

42:                                               ; preds = %26
  store i1 true, ptr %4, align 1
  store i32 1, ptr %10, align 4
  br label %47

43:                                               ; preds = %26
  br label %44

44:                                               ; preds = %43
  %45 = load i64, ptr %9, align 8, !tbaa !40
  %46 = add i64 %45, 1
  store i64 %46, ptr %9, align 8, !tbaa !40
  br label %21, !llvm.loop !136

47:                                               ; preds = %42, %25
  call void @llvm.lifetime.end.p0(i64 8, ptr %9) #16
  %48 = load i32, ptr %10, align 4
  switch i32 %48, label %50 [
    i32 2, label %49
  ]

49:                                               ; preds = %47
  store i1 false, ptr %4, align 1
  store i32 1, ptr %10, align 4
  br label %50

50:                                               ; preds = %49, %47
  call void @llvm.lifetime.end.p0(i64 4, ptr %8) #16
  %51 = load i1, ptr %4, align 1
  ret i1 %51
}