; Function Attrs: mustprogress uwtable
define hidden noundef zeroext i1 @_ZN5zxing6qrcode8Detector13hasSameResultESt6vectorINS_3RefINS0_16AlignmentPatternEEESaIS5_EES5_(ptr nonnull readnone align 8 captures(none) %0, ptr noundef readonly captures(none) %1, ptr noundef readonly captures(none) %2) local_unnamed_addr #1 align 2 {
  %4 = load ptr, ptr %2, align 8, !tbaa !80
  %5 = getelementptr inbounds nuw i8, ptr %4, i64 20
  %6 = load float, ptr %5, align 4, !tbaa !102
  %7 = fdiv float %6, 5.000000e+00
  %8 = fcmp olt float %7, 1.000000e+00
  %.07 = select i1 %8, float 1.000000e+00, float %7
  %9 = getelementptr inbounds nuw i8, ptr %1, i64 8
  %10 = load ptr, ptr %9, align 8, !tbaa !70
  %11 = load ptr, ptr %1, align 8, !tbaa !71
  %.not9.not = icmp eq ptr %10, %11
  br i1 %.not9.not, label %.critedge, label %.lr.ph

12:                                               ; preds = %.lr.ph
  %13 = add nuw i64 %.0610, 1
  %14 = load ptr, ptr %9, align 8, !tbaa !70
  %15 = load ptr, ptr %1, align 8, !tbaa !71
  %16 = ptrtoint ptr %14 to i64
  %17 = ptrtoint ptr %15 to i64
  %18 = sub i64 %16, %17
  %19 = ashr exact i64 %18, 3
  %.not = icmp ult i64 %13, %19
  br i1 %.not, label %.lr.ph, label %.critedge, !llvm.loop !104

.lr.ph:                                           ; preds = %3, %12
  %20 = phi ptr [ %15, %12 ], [ %11, %3 ]
  %.0610 = phi i64 [ %13, %12 ], [ 0, %3 ]
  %21 = getelementptr inbounds nuw %"class.zxing::Ref.26", ptr %20, i64 %.0610
  %22 = load ptr, ptr %21, align 8, !tbaa !80
  %23 = load ptr, ptr %2, align 8, !tbaa !80
  %24 = load ptr, ptr %23, align 8, !tbaa !8
  %25 = getelementptr inbounds nuw i8, ptr %24, i64 24
  %26 = load ptr, ptr %25, align 8
  %27 = tail call noundef float %26(ptr noundef nonnull align 8 dereferenceable(20) %23)
  %28 = load ptr, ptr %2, align 8, !tbaa !80
  %29 = load ptr, ptr %28, align 8, !tbaa !8
  %30 = getelementptr inbounds nuw i8, ptr %29, i64 16
  %31 = load ptr, ptr %30, align 8
  %32 = tail call noundef float %31(ptr noundef nonnull align 8 dereferenceable(20) %28)
  %33 = tail call noundef zeroext i1 @_ZNK5zxing6qrcode16AlignmentPattern11aboutEqualsEfff(ptr noundef nonnull align 8 dereferenceable(24) %22, float noundef %.07, float noundef %27, float noundef %32)
  br i1 %33, label %.critedge, label %12

.critedge:                                        ; preds = %.lr.ph, %12, %3
  %.not.lcssa = phi i1 [ false, %3 ], [ %33, %12 ], [ %33, %.lr.ph ]
  ret i1 %.not.lcssa
}